(dp0
V\u611b3
p1
(dp2
Vmodi
p3
V
p4
sVentry_pos
p5
V\u540d\u8a5e
p6
sVout_list
p7
(lp8
(isyori
info
p9
(dp10
S'modify_type'
p11
S''
p12
sS'pos'
p13
V\u540d\u8a5e
p14
sS'c_dep'
p15
I1
sS'p_c_num'
p16
(lp17
sS'modify_check'
p18
g12
sS'nms'
p19
g12
sS'kaiseki_case'
p20
V\u30f2
p21
sS'input_morp'
p22
V\u5f7c
p23
sS'c_clause_type'
p24
g12
sS'clause_type'
p25
g12
sS'morp'
p26
(lp27
V\u5f7c
p28
aV\u304b\u308c
p29
asS'k_counter'
p30
g4
sS'per'
p31
g12
sS'p_p_num'
p32
(lp33
sS'case_check'
p34
S'yes'
p35
sS'para_check'
p36
g12
sS'main'
p37
g12
sS'predicate'
p38
g12
sS'c_position'
p39
I0
sS'main_case'
p40
g4
sS'reg_morp_form'
p41
V\u5f7c
p42
sS'k_position'
p43
I0
sS'c_kazu'
p44
g12
sS'tense'
p45
(lp46
sS'para_type'
p47
(lp48
sS'case_relation'
p49
(lp50
sS'dom'
p51
g4
sS'k_dep'
p52
I1
sS'clause_func'
p53
g4
sS'cat'
p54
V\u4eba
p55
sS'predicate_check'
p56
g12
sS'k_kazu'
p57
g12
sS'c_counter'
p58
g4
sba(isyori
info
p59
(dp60
g11
g12
sg13
V\u52d5\u8a5e
p61
sg15
I-1
sg16
(lp62
sg18
g12
sg19
g12
sg20
(lp63
sg22
V\u611b\u3059\u308b
p64
sg24
V\u4e3b\u7bc0
p65
sg25
V\u4e3b\u7bc0
p66
sg26
(lp67
V\u611b\u3059\u308b
p68
aV\u3042\u3044\u3059\u308b
p69
asg30
g4
sg31
g12
sg32
(lp70
sg34
g35
sg36
g12
sg37
g12
sg38
V\u52d5\u614b\u8ff0\u8a9e
p71
sg39
I1
sg40
V\u4e00\u4eba\u79f0\u512a\u4f4d
p72
sg41
V\u611b\u3059\u308b
p73
sg43
I1
sg44
g12
sg45
V\u672a\u6765
p74
sg47
(lp75
sg49
(lp76
V\u30f2:\u5f7c
p77
asg51
g4
sg52
I-1
sg53
g4
sg54
g4
sg56
g35
sg57
g12
sg58
g4
sbasVentry
p78
V\u611b
p79
sVID
p80
V7
p81
sVex_sent
p82
V\u5f7c\u3092\u611b\u3059\u308b
p83
sVpos_in_ex
p84
g61
sVentry_h
p85
V\u3042\u3044
p86
sVp_a
p87
(dp88
Vpredicate
p89
g73
sVargument
p90
(dp91
V\u30f2
p92
(dp93
Vcat
p94
V\u4eba
p95
sVdom
p96
g12
sVarg
p97
V\u5f7c
p98
sssssV\u611b2
p99
(dp100
g3
g4
sg5
V\u540d\u8a5e
p101
sg7
(lp102
(isyori
info
p103
(dp104
g11
g12
sg13
V\u52d5\u8a5e
p105
sg15
I-1
sg16
(lp106
sg18
g12
sg19
g12
sg20
(lp107
sg22
V\u611b\u3057
p108
sg24
V\u4e3b\u7bc0
p109
sg25
V\u4e3b\u7bc0
p110
sg26
(lp111
V\u611b\u3059
p112
aV\u3042\u3044\u3059?\u611b\u3059\u308b
p113
aV\u3042\u3044\u3059\u308b>
p114
asg30
g4
sg31
g12
sg32
(lp115
sg34
g35
sg36
g12
sg37
g12
sg38
V\u52d5\u614b\u8ff0\u8a9e
p116
sg39
I0
sg40
V\u4e00\u4eba\u79f0\u512a\u4f4d
p117
sg41
V\u611b\u3059
p118
sg43
I0
sg44
g12
sg45
V\u672a\u6765
p119
sg47
(lp120
sg49
(lp121
sg51
g4
sg52
I-1
sg53
g4
sg54
g4
sg56
g35
sg57
g12
sg58
g4
sbasg78
V\u611b
p122
sg80
V6
p123
sg82
V\u611b\u3057\u5408\u3063\u3066\u3044\u308b
p124
sg84
g105
sg85
V\u3042\u3044
p125
sg87
(dp126
g89
g4
sg90
g4
sssV\u611b1
p127
(dp128
g3
g4
sg5
V\u540d\u8a5e
p129
sg7
(lp130
(isyori
info
p131
(dp132
g11
V\u9023\u4f53\u4fee\u98fe
p133
sg13
V\u5f62\u5bb9\u8a5e
p134
sg15
I1
sg16
g4
sg18
g35
sg19
g12
sg20
(lp135
sg22
V\u82e5\u3044
p136
sg24
g12
sg25
g12
sg26
(lp137
V\u82e5\u3044
p138
aV\u308f\u304b\u3044
p139
asg30
g4
sg31
g12
sg32
g4
sg34
g12
sg36
g35
sg37
g12
sg38
V\u72b6\u614b\u8ff0\u8a9e
p140
sg39
I0
sg40
V\u4e00\u4eba\u79f0\u512a\u4f4d
p141
sg41
V\u82e5\u3044
p142
sg43
I0
sg44
g12
sg45
V\u73fe\u5728\u7121\u6642\u5236
p143
sg47
g4
sg49
(lp144
sg51
g4
sg52
I1
sg53
g4
sg54
g4
sg56
g35
sg57
g12
sg58
g4
sba(isyori
info
p145
(dp146
g11
g12
sg13
V\u52d5\u8a5e
p147
sg15
I-1
sg16
(lp148
sg18
g12
sg19
g12
sg20
(lp149
sg22
V\u611b\u3057
p150
sg24
V\u4e3b\u7bc0
p151
sg25
V\u4e3b\u7bc0
p152
sg26
(lp153
V\u611b\u3059
p154
aV\u3042\u3044\u3059?\u611b\u3059\u308b
p155
aV\u3042\u3044\u3059\u308b>
p156
asg30
g4
sg31
g12
sg32
(lp157
sg34
g35
sg36
g12
sg37
g12
sg38
V\u52d5\u614b\u8ff0\u8a9e
p158
sg39
I2
sg40
V\u4e00\u4eba\u79f0\u512a\u4f4d
p159
sg41
V\u611b\u3059
p160
sg43
I2
sg44
g12
sg45
V\u672a\u6765
p161
sg47
(lp162
sg49
(lp163
V\u30ac:\u4eba
p164
asg51
g4
sg52
I-1
sg53
g4
sg54
g4
sg56
g35
sg57
g12
sg58
g4
sbasg78
V\u611b
p165
sg80
V5
p166
sg82
V\uff08\u82e5\u3044\uff09\u4e8c\u4eba\u306f\u611b\u3057\u5408\u3063\u3066\u3044\u308b
p167
sg84
g147
sg85
V\u3042\u3044
p168
sg87
(dp169
g89
g160
sg90
(dp170
V\u30ac
p171
NssssV\u611b0
p172
(dp173
g3
(lp174
(dp175
Vdom
p176
g12
sVcat
p177
V\u4eba
p178
sasg5
V\u540d\u8a5e
p179
sg7
(lp180
(isyori
info
p181
(dp182
g11
V\u9023\u4f53\u4fee\u98fe
p183
sg13
V\u540d\u8a5e
p184
sg15
I1
sg16
(lp185
sg18
g35
sg19
g12
sg20
(lp186
sg22
V\u7537\u5973
p187
sg24
g12
sg25
g12
sg26
(lp188
V\u7537\u5973
p189
aV\u3060\u3093\u3058\u3087
p190
asg30
g4
sg31
g12
sg32
(lp191
sg34
g12
sg36
g12
sg37
g12
sg38
g12
sg39
I0
sg40
g4
sg41
V\u7537\u5973
p192
sg43
I0
sg44
g12
sg45
(lp193
sg47
(lp194
sg49
(lp195
sg51
g4
sg52
I1
sg53
g4
sg54
V\u4eba
p196
sg56
g12
sg57
g12
sg58
g4
sba(isyori
info
p197
(dp198
g11
g12
sg13
V\u540d\u8a5e
p199
sg15
I-1
sg16
(lp200
sg18
g12
sg19
g12
sg20
(lp201
sg22
V\u611b
p202
sg24
V\u4e3b\u7bc0
p203
sg25
V\u4e3b\u7bc0
p204
sg26
(lp205
V\u611b
p206
aV\u3042\u3044
p207
asg30
g4
sg31
g12
sg32
(lp208
sg34
g35
sg36
g12
sg37
g12
sg38
V\u4f53\u8a00\u6b62
p209
sg39
I1
sg40
g4
sg41
V\u611b
p210
sg43
I1
sg44
g12
sg45
V\u7121\u6642\u5236
p211
sg47
(lp212
sg49
(lp213
sg51
g4
sg52
I-1
sg53
g4
sg54
V\u62bd\u8c61\u7269
p214
sg56
g35
sg57
g12
sg58
g4
sbasg78
V\u611b
p215
sg80
V4
p216
sg82
V\u7537\u5973\u306e\u611b
p217
sg84
g199
sg85
V\u3042\u3044
p218
sg87
g4
ssV\u9752\u30441
p219
(dp220
g3
(lp221
sg5
V\u5f62\u5bb9\u8a5e
p222
sg7
(lp223
(isyori
info
p224
(dp225
g11
g12
sg13
V\u5f62\u5bb9\u8a5e
p226
sg15
I-1
sg16
(lp227
sg18
g12
sg19
g12
sg20
(lp228
sg22
V\u9752\u304f
p229
sg24
V\u4e3b\u7bc0
p230
sg25
V\u4e3b\u7bc0
p231
sg26
(lp232
V\u9752\u3044
p233
aV\u3042\u304a\u3044
p234
asg30
g4
sg31
g12
sg32
(lp235
sg34
g35
sg36
g12
sg37
g12
sg38
V\u52d5\u614b\u8ff0\u8a9e
p236
sg39
I0
sg40
V\u4e00\u4eba\u79f0\u512a\u4f4d
p237
sg41
V\u9752\u3044
p238
sg43
I0
sg44
g12
sg45
V\u672a\u6765
p239
sg47
(lp240
sg49
(lp241
sg51
g4
sg52
I-1
sg53
g4
sg54
g4
sg56
g35
sg57
g12
sg58
g4
sbasg78
V\u9752\u3044
p242
sg80
V44
p243
sg82
V\u9752\u304f\u306a\u308b
p244
sg84
g226
sg85
V\u3042\u304a\u3044
p245
sg87
g4
ssV\u9752\u30440
p246
(dp247
g3
(lp248
(dp249
g176
g12
sg177
V\u62bd\u8c61\u7269
p250
sasg5
V\u5f62\u5bb9\u8a5e
p251
sg7
(lp252
(isyori
info
p253
(dp254
g11
V\u9023\u4f53\u4fee\u98fe
p255
sg13
V\u5f62\u5bb9\u8a5e
p256
sg15
I1
sg16
(lp257
sg18
g35
sg19
g12
sg20
(lp258
sg22
V\u9752\u3044
p259
sg24
V\u9023\u4f53\u7bc0
p260
sg25
V\u9023\u4f53\u7bc0
p261
sg26
(lp262
V\u9752\u3044
p263
aV\u3042\u304a\u3044
p264
asg30
g4
sg31
g12
sg32
(lp265
sg34
g12
sg36
g12
sg37
g12
sg38
V\u72b6\u614b\u8ff0\u8a9e
p266
sg39
I0
sg40
g4
sg41
V\u9752\u3044
p267
sg43
I0
sg44
g12
sg45
V\u73fe\u5728\u7121\u6642\u5236
p268
sg47
(lp269
sg49
(lp270
V\u30ac:\u7a7a
p271
asg51
g4
sg52
I1
sg53
g4
sg54
g4
sg56
g35
sg57
g12
sg58
g4
sba(isyori
info
p272
(dp273
g11
g12
sg13
V\u540d\u8a5e
p274
sg15
I-1
sg16
(lp275
sg18
g12
sg19
g12
sg20
(lp276
sg22
V\u7a7a
p277
sg24
V\u4e3b\u7bc0
p278
sg25
V\u4e3b\u7bc0
p279
sg26
(lp280
V\u7a7a
p281
aV\u304b\u3089?\u7a7a
p282
aV\u305d\u3089>
p283
asg30
g4
sg31
g12
sg32
(lp284
sg34
g35
sg36
g12
sg37
g12
sg38
V\u4f53\u8a00\u6b62
p285
sg39
I1
sg40
g4
sg41
V\u7a7a
p286
sg43
I1
sg44
g12
sg45
V\u7121\u6642\u5236
p287
sg47
(lp288
sg49
(lp289
sg51
g4
sg52
I-1
sg53
g4
sg54
V\u62bd\u8c61\u7269
p290
sg56
g35
sg57
g12
sg58
g4
sbasg78
V\u9752\u3044
p291
sg80
V43
p292
sg82
V\u9752\u3044\u7a7a
p293
sg84
g256
sg85
V\u3042\u304a\u3044
p294
sg87
g4
ssV\u611b5
p295
(dp296
g3
g4
sg5
V\u540d\u8a5e
p297
sg7
(lp298
(isyori
info
p299
(dp300
g11
g12
sg13
V\u526f\u8a5e
p301
sg15
I1
sg16
(lp302
sg18
g12
sg19
g12
sg20
V\u30cb
p303
sg22
V\u307f\u3093\u306a
p304
sg24
g12
sg25
g12
sg26
(lp305
V\u7686
p306
aV\u307f\u3093\u306a
p307
asg30
g4
sg31
g12
sg32
(lp308
sg34
g35
sg36
g12
sg37
g12
sg38
g12
sg39
I0
sg40
g4
sg41
V\u307f\u3093\u306a
p309
sg43
I0
sg44
g12
sg45
(lp310
sg47
(lp311
sg49
(lp312
sg51
g4
sg52
I1
sg53
g4
sg54
g4
sg56
g12
sg57
g12
sg58
g4
sba(isyori
info
p313
(dp314
g11
g12
sg13
V\u52d5\u8a5e
p315
sg15
I-1
sg16
(lp316
sg18
g12
sg19
g12
sg20
(lp317
sg22
V\u611b\u3055
p318
sg24
V\u4e3b\u7bc0
p319
sg25
V\u4e3b\u7bc0
p320
sg26
(lp321
V\u611b\u3059
p322
aV\u3042\u3044\u3059?\u611b\u3059\u308b
p323
aV\u3042\u3044\u3059\u308b>
p324
asg30
g4
sg31
g12
sg32
(lp325
sg34
g35
sg36
g12
sg37
g12
sg38
V\u52d5\u614b\u8ff0\u8a9e
p326
sg39
I1
sg40
V\u4e00\u4eba\u79f0\u512a\u4f4d
p327
sg41
V\u611b\u3059
p328
sg43
I1
sg44
g12
sg45
V\u672a\u6765
p329
sg47
(lp330
sg49
(lp331
V\u30cb:\u307f\u3093\u306a
p332
asg51
g4
sg52
I-1
sg53
g4
sg54
g4
sg56
g35
sg57
g12
sg58
g4
sbasg78
V\u611b
p333
sg80
V9
p334
sg82
V\u307f\u3093\u306a\u306b\u611b\u3055\u308c\u308b
p335
sg84
g315
sg85
V\u3042\u3044
p336
sg87
(dp337
g89
g328
sg90
(dp338
V\u30cb
p339
(dp340
g94
g12
sg96
g12
sg97
V\u307f\u3093\u306a
p341
sssssV\u611b4
p342
(dp343
g3
g4
sg5
V\u540d\u8a5e
p344
sg7
(lp345
(isyori
info
p346
(dp347
g11
g12
sg13
V\u540d\u8a5e
p348
sg15
I1
sg16
(lp349
sg18
g12
sg19
g12
sg20
V\u30cb
p350
sg22
V\u6bcd
p351
sg24
g12
sg25
g12
sg26
(lp352
V\u6bcd
p353
aV\u306f\u306f?\u6bcd
p354
aV\u307c>
p355
asg30
g4
sg31
g12
sg32
(lp356
sg34
g35
sg36
g12
sg37
g12
sg38
g12
sg39
I0
sg40
g4
sg41
V\u6bcd
p357
sg43
I0
sg44
g12
sg45
(lp358
sg47
(lp359
sg49
(lp360
sg51
V\u5bb6\u5ead\u30fb\u66ae\u3089\u3057
p361
sg52
I1
sg53
g4
sg54
V\u4eba
p362
sg56
g12
sg57
g12
sg58
g4
sba(isyori
info
p363
(dp364
g11
g12
sg13
V\u52d5\u8a5e
p365
sg15
I-1
sg16
(lp366
sg18
g12
sg19
g12
sg20
(lp367
sg22
V\u611b\u3055
p368
sg24
V\u4e3b\u7bc0
p369
sg25
V\u4e3b\u7bc0
p370
sg26
(lp371
V\u611b\u3059
p372
aV\u3042\u3044\u3059?\u611b\u3059\u308b
p373
aV\u3042\u3044\u3059\u308b>
p374
asg30
g4
sg31
g12
sg32
(lp375
sg34
g35
sg36
g12
sg37
g12
sg38
V\u52d5\u614b\u8ff0\u8a9e
p376
sg39
I1
sg40
V\u4e00\u4eba\u79f0\u512a\u4f4d
p377
sg41
V\u611b\u3059
p378
sg43
I1
sg44
g12
sg45
V\u672a\u6765
p379
sg47
(lp380
sg49
(lp381
V\u30cb:\u6bcd
p382
asg51
g4
sg52
I-1
sg53
g4
sg54
g4
sg56
g35
sg57
g12
sg58
g4
sbasg78
V\u611b
p383
sg80
V8
p384
sg82
V\u6bcd\u306b\u611b\u3055\u308c\u308b
p385
sg84
g365
sg85
V\u3042\u3044
p386
sg87
(dp387
g89
g378
sg90
(dp388
V\u30cb
p389
(dp390
g94
V\u4eba
p391
sg96
V\u5bb6\u5ead\u30fb\u66ae\u3089\u3057
p392
sg97
V\u6bcd
p393
sssssV\u8d64\u30440
p394
(dp395
g3
(lp396
(dp397
g176
g12
sg177
V\u690d\u7269-\u90e8\u4f4d
p398
sasg5
V\u5f62\u5bb9\u8a5e
p399
sg7
(lp400
(isyori
info
p401
(dp402
g11
V\u9023\u4f53\u4fee\u98fe
p403
sg13
V\u5f62\u5bb9\u8a5e
p404
sg15
I1
sg16
(lp405
sg18
g35
sg19
g12
sg20
(lp406
sg22
V\u8d64\u3044
p407
sg24
V\u9023\u4f53\u7bc0
p408
sg25
V\u9023\u4f53\u7bc0
p409
sg26
(lp410
V\u8d64\u3044
p411
aV\u3042\u304b\u3044
p412
asg30
g4
sg31
g12
sg32
(lp413
sg34
g12
sg36
g12
sg37
g12
sg38
V\u72b6\u614b\u8ff0\u8a9e
p414
sg39
I0
sg40
g4
sg41
V\u8d64\u3044
p415
sg43
I0
sg44
g12
sg45
V\u73fe\u5728\u7121\u6642\u5236
p416
sg47
(lp417
sg49
(lp418
V\u30ac:\u82b1
p419
asg51
g4
sg52
I1
sg53
g4
sg54
g4
sg56
g35
sg57
g12
sg58
g4
sba(isyori
info
p420
(dp421
g11
g12
sg13
V\u540d\u8a5e
p422
sg15
I-1
sg16
(lp423
sg18
g12
sg19
g12
sg20
(lp424
sg22
V\u82b1
p425
sg24
V\u4e3b\u7bc0
p426
sg25
V\u4e3b\u7bc0
p427
sg26
(lp428
V\u82b1
p429
aV\u304b?\u82b1
p430
aV\u306f\u306a>
p431
asg30
g4
sg31
g12
sg32
(lp432
sg34
g35
sg36
g12
sg37
g12
sg38
V\u4f53\u8a00\u6b62
p433
sg39
I1
sg40
g4
sg41
V\u82b1
p434
sg43
I1
sg44
g12
sg45
V\u7121\u6642\u5236
p435
sg47
(lp436
sg49
(lp437
sg51
g4
sg52
I-1
sg53
g4
sg54
V\u690d\u7269-\u90e8\u4f4d
p438
sg56
g35
sg57
g12
sg58
g4
sbasg78
V\u8d64\u3044
p439
sg80
V52
p440
sg82
V\u8d64\u3044\u82b1
p441
sg84
g404
sg85
V\u3042\u304b\u3044
p442
sg87
g4
ssV\u4e0a\u304c\u308b0
p443
(dp444
g3
g4
sg5
V\u52d5\u8a5e
p445
sg7
(lp446
(isyori
info
p447
(dp448
g11
g12
sg13
V\u540d\u8a5e
p449
sg15
I1
sg16
(lp450
sg18
g12
sg19
g12
sg20
V\u30ac
p451
sg22
V\u65d7
p452
sg24
g12
sg25
g12
sg26
(lp453
V\u65d7
p454
aV\u304d?\u65d7
p455
aV\u306f\u305f>
p456
asg30
g4
sg31
g12
sg32
(lp457
sg34
g35
sg36
g12
sg37
g12
sg38
g12
sg39
I0
sg40
g4
sg41
V\u65d7
p458
sg43
I0
sg44
g12
sg45
(lp459
sg47
(lp460
sg49
(lp461
sg51
g4
sg52
I1
sg53
g4
sg54
V\u4eba\u5de5\u7269-\u305d\u306e\u4ed6
p462
sg56
g12
sg57
g12
sg58
g4
sba(isyori
info
p463
(dp464
g11
g12
sg13
V\u52d5\u8a5e
p465
sg15
I-1
sg16
(lp466
sg18
g12
sg19
g12
sg20
(lp467
sg22
V\u3042\u304c\u308b
p468
sg24
V\u4e3b\u7bc0
p469
sg25
V\u4e3b\u7bc0
p470
sg26
(lp471
V\u4e0a\u304c\u308b
p472
aV\u3042\u304c\u308b?\u6319\u304c\u308b
p473
aV\u3042\u304c\u308b?\u63da\u304c\u308b
p474
aV\u3042\u304c\u308b>
p475
asg30
g4
sg31
g12
sg32
(lp476
sg34
g35
sg36
g12
sg37
g12
sg38
V\u52d5\u614b\u8ff0\u8a9e
p477
sg39
I1
sg40
V\u4e00\u4eba\u79f0\u512a\u4f4d
p478
sg41
V\u3042\u304c\u308b
p479
sg43
I1
sg44
g12
sg45
V\u672a\u6765
p480
sg47
(lp481
sg49
(lp482
V\u30ac:\u65d7
p483
asg51
V\u6599\u7406\u30fb\u98df\u4e8b
p484
sg52
I-1
sg53
g4
sg54
g4
sg56
g35
sg57
g12
sg58
g4
sbasg78
V\u4e0a\u304c\u308b
p485
sg80
V59
p486
sg82
V\u65d7\u304c\u3042\u304c\u308b
p487
sg84
Nsg85
V\u3042\u304c\u308b
p488
sg87
(dp489
g89
g479
sg90
(dp490
V\u30ac
p491
(dp492
g94
V\u4eba\u5de5\u7269-\u305d\u306e\u4ed6
p493
sg96
g12
sg97
V\u65d7
p494
sssssV\u30a2\u30a4\u30ed\u30f30
p495
(dp496
g3
(lp497
(dp498
g176
V\u5bb6\u5ead\u30fb\u66ae\u3089\u3057
p499
sg177
V\u4eba\u5de5\u7269-\u8863\u985e
p500
sa(dp501
g176
g12
sg177
g12
sasg5
V\u540d\u8a5e
p502
sg7
(lp503
(isyori
info
p504
(dp505
g11
g12
sg13
V\u540d\u8a5e
p506
sg15
I2
sg16
(lp507
sg18
g12
sg19
g12
sg20
V\u30cb
p508
sg22
V\u670d
p509
sg24
g12
sg25
g12
sg26
(lp510
V\u670d
p511
aV\u3075\u304f
p512
asg30
g4
sg31
g12
sg32
(lp513
sg34
g35
sg36
g12
sg37
g12
sg38
g12
sg39
I0
sg40
g4
sg41
V\u670d
p514
sg43
I0
sg44
g12
sg45
(lp515
sg47
(lp516
sg49
(lp517
sg51
V\u5bb6\u5ead\u30fb\u66ae\u3089\u3057
p518
sg52
I2
sg53
g4
sg54
V\u4eba\u5de5\u7269-\u8863\u985e
p519
sg56
g12
sg57
g12
sg58
g4
sba(isyori
info
p520
(dp521
g11
g12
sg13
V\u540d\u8a5e
p522
sg15
I2
sg16
(lp523
sg18
g12
sg19
g12
sg20
V\u30f2
p524
sg22
V\u30a2\u30a4\u30ed\u30f3
p525
sg24
g12
sg25
g12
sg26
(lp526
V\u30a2\u30a4\u30ed\u30f3
p527
aV\u3042\u3044\u308d\u3093
p528
asg30
g4
sg31
g12
sg32
(lp529
sg34
g35
sg36
g12
sg37
g12
sg38
g12
sg39
I1
sg40
g4
sg41
V\u30a2\u30a4\u30ed\u30f3
p530
sg43
I1
sg44
g12
sg45
(lp531
sg47
(lp532
sg49
(lp533
sg51
V\u5bb6\u5ead\u30fb\u66ae\u3089\u3057
p534
sg52
I2
sg53
g4
sg54
V\u4eba\u5de5\u7269-\u305d\u306e\u4ed6
p535
sg56
g12
sg57
g12
sg58
g4
sba(isyori
info
p536
(dp537
g11
g12
sg13
V\u52d5\u8a5e
p538
sg15
I-1
sg16
(lp539
sg18
g12
sg19
g12
sg20
(lp540
sg22
V\u304b\u3051\u308b
p541
sg24
V\u4e3b\u7bc0
p542
sg25
V\u4e3b\u7bc0
p543
sg26
(lp544
V\u639b\u3051\u308b
p545
aV\u304b\u3051\u308b?\u66f8\u3051\u308b
p546
aV\u304b\u3051\u308b?\u6b20\u3051\u308b
p547
aV\u304b\u3051\u308b?\u8ced\u3051\u308b
p548
aV\u304b\u3051\u308b?\u99c6\u3051\u308b
p549
aV\u304b\u3051\u308b>
p550
asg30
g4
sg31
g12
sg32
(lp551
sg34
g35
sg36
g12
sg37
g12
sg38
V\u52d5\u614b\u8ff0\u8a9e
p552
sg39
I2
sg40
V\u4e00\u4eba\u79f0\u512a\u4f4d
p553
sg41
V\u304b\u3051\u308b
p554
sg43
I2
sg44
g12
sg45
V\u672a\u6765
p555
sg47
(lp556
sg49
(lp557
V\u30cb:\u670d
p558
aV\u30f2:\u30a2\u30a4\u30ed\u30f3
p559
asg51
g4
sg52
I-1
sg53
g4
sg54
g4
sg56
g35
sg57
g12
sg58
g4
sbasg78
V\u30a2\u30a4\u30ed\u30f3
p560
sg80
V32
p561
sg82
V\u670d\u306b\u30a2\u30a4\u30ed\u30f3\u3092\u304b\u3051\u308b
p562
sg84
g522
sg85
V\u3042\u3044\u308d\u3093
p563
sg87
g4
ss.